; Function Attrs: nounwind uwtable
define void @Gia_ObjCollectInternalCut(ptr noundef %0, i32 noundef %1, ptr noundef readonly captures(none) %2) local_unnamed_addr #2 {
  %4 = getelementptr i8, ptr %2, i64 4
  %.val1316 = load i32, ptr %4, align 4, !tbaa !36
  %5 = icmp sgt i32 %.val1316, 0
  br i1 %5, label %.lr.ph, label %.critedge

.lr.ph:                                           ; preds = %3
  %6 = getelementptr i8, ptr %2, i64 8
  %.val = load ptr, ptr %6, align 8, !tbaa !30
  %7 = getelementptr i8, ptr %0, i64 928
  %.val14 = load ptr, ptr %7, align 8, !tbaa !58
  %8 = getelementptr i8, ptr %.val14, i64 8
  %.val14.val = load ptr, ptr %8, align 8, !tbaa !30
  br label %9

9:                                                ; preds = %.lr.ph, %19
  %.val1319 = phi i32 [ %.val1316, %.lr.ph ], [ %.val13, %19 ]
  %indvars.iv = phi i64 [ 0, %.lr.ph ], [ %indvars.iv.next, %19 ]
  %10 = getelementptr inbounds nuw i32, ptr %.val, i64 %indvars.iv
  %11 = load i32, ptr %10, align 4, !tbaa !31
  %12 = sext i32 %11 to i64
  %13 = getelementptr inbounds i32, ptr %.val14.val, i64 %12
  %14 = load i32, ptr %13, align 4, !tbaa !31
  %15 = icmp slt i32 %14, -999999999
  br i1 %15, label %16, label %19

16:                                               ; preds = %9
  %17 = trunc i64 %indvars.iv to i32
  %18 = sub i32 0, %17
  store i32 %18, ptr %13, align 4, !tbaa !31
  %.val13.pre = load i32, ptr %4, align 4, !tbaa !36
  br label %19

19:                                               ; preds = %9, %16
  %.val13 = phi i32 [ %.val1319, %9 ], [ %.val13.pre, %16 ]
  %indvars.iv.next = add nuw nsw i64 %indvars.iv, 1
  %20 = sext i32 %.val13 to i64
  %21 = icmp slt i64 %indvars.iv.next, %20
  br i1 %21, label %9, label %.critedge, !llvm.loop !88

.critedge:                                        ; preds = %19, %3
  %22 = getelementptr inbounds nuw i8, ptr %0, i64 936
  %23 = load ptr, ptr %22, align 8, !tbaa !57
  %24 = getelementptr inbounds nuw i8, ptr %23, i64 4
  store i32 0, ptr %24, align 4, !tbaa !36
  %25 = load i32, ptr %23, align 8, !tbaa !37
  %26 = icmp eq i32 %25, 0
  %27 = getelementptr inbounds nuw i8, ptr %23, i64 8
  %28 = load ptr, ptr %27, align 8, !tbaa !30
  br i1 %26, label %29, label %Vec_IntPush.exit

29:                                               ; preds = %.critedge
  %.not9.i.i = icmp eq ptr %28, null
  br i1 %.not9.i.i, label %32, label %30

30:                                               ; preds = %29
  %31 = tail call dereferenceable_or_null(64) ptr @realloc(ptr noundef nonnull %28, i64 noundef 64) #25
  %.pre.pre = load i32, ptr %24, align 4, !tbaa !36
  br label %Vec_IntGrow.exit.i

32:                                               ; preds = %29
  %33 = tail call noalias dereferenceable_or_null(64) ptr @malloc(i64 noundef 64) #24
  br label %Vec_IntGrow.exit.i

Vec_IntGrow.exit.i:                               ; preds = %32, %30
  %.pre = phi i32 [ %.pre.pre, %30 ], [ 0, %32 ]
  %34 = phi ptr [ %31, %30 ], [ %33, %32 ]
  store ptr %34, ptr %27, align 8, !tbaa !30
  store i32 16, ptr %23, align 8, !tbaa !37
  br label %Vec_IntPush.exit

Vec_IntPush.exit:                                 ; preds = %.critedge, %Vec_IntGrow.exit.i
  %35 = phi i32 [ %.pre, %Vec_IntGrow.exit.i ], [ 0, %.critedge ]
  %36 = phi ptr [ %34, %Vec_IntGrow.exit.i ], [ %28, %.critedge ]
  %37 = add nsw i32 %35, 1
  store i32 %37, ptr %24, align 4, !tbaa !36
  %38 = sext i32 %35 to i64
  %39 = getelementptr inbounds i32, ptr %36, i64 %38
  store i32 -1, ptr %39, align 4, !tbaa !31
  tail call void @Gia_ObjCollectInternalCut_rec(ptr noundef nonnull %0, i32 noundef %1)
  ret void
}